target datalayout = "e-m:e-p270:32:32-p271:32:32-p272:64:64-i64:64-i128:128-f80:128-n8:16:32:64-S128"
target triple = "x86_64-pc-linux-gnu"

@.str = private unnamed_addr constant [127 x i8] c"generated/home/dtcxzyw/WorkSpace/Projects/compilers/llvm-opt-benchmark/bench/sundials/sundials/src/arkode/arkode_butcher_erk.c\00", align 1
@.str.1 = private unnamed_addr constant [22 x i8] c"Unknown Butcher table\00", align 1
@.str.2 = private unnamed_addr constant [16 x i8] c"ARKODE_ERK_NONE\00", align 1
@.str.3 = private unnamed_addr constant [25 x i8] c"ARKODE_FORWARD_EULER_1_1\00", align 1
@.str.4 = private unnamed_addr constant [24 x i8] c"ARKODE_HEUN_EULER_2_1_2\00", align 1
@.str.5 = private unnamed_addr constant [27 x i8] c"ARKODE_RALSTON_EULER_2_1_2\00", align 1
@.str.6 = private unnamed_addr constant [37 x i8] c"ARKODE_EXPLICIT_MIDPOINT_EULER_2_1_2\00", align 1
@.str.7 = private unnamed_addr constant [22 x i8] c"ARKODE_ARK2_ERK_3_1_2\00", align 1
@.str.8 = private unnamed_addr constant [30 x i8] c"ARKODE_BOGACKI_SHAMPINE_4_2_3\00", align 1
@.str.9 = private unnamed_addr constant [28 x i8] c"ARKODE_ARK324L2SA_ERK_4_2_3\00", align 1
@.str.10 = private unnamed_addr constant [23 x i8] c"ARKODE_SHU_OSHER_3_2_3\00", align 1
@.str.11 = private unnamed_addr constant [32 x i8] c"ARKODE_SOFRONIOU_SPALETTA_5_3_4\00", align 1
@.str.12 = private unnamed_addr constant [23 x i8] c"ARKODE_ZONNEVELD_5_3_4\00", align 1
@.str.13 = private unnamed_addr constant [28 x i8] c"ARKODE_ARK436L2SA_ERK_6_3_4\00", align 1
@.str.14 = private unnamed_addr constant [28 x i8] c"ARKODE_ARK437L2SA_ERK_7_3_4\00", align 1
@.str.15 = private unnamed_addr constant [26 x i8] c"ARKODE_SAYFY_ABURUB_6_3_4\00", align 1
@.str.16 = private unnamed_addr constant [23 x i8] c"ARKODE_CASH_KARP_6_4_5\00", align 1
@.str.17 = private unnamed_addr constant [22 x i8] c"ARKODE_FEHLBERG_6_4_5\00", align 1
@.str.18 = private unnamed_addr constant [28 x i8] c"ARKODE_DORMAND_PRINCE_7_4_5\00", align 1
@.str.19 = private unnamed_addr constant [28 x i8] c"ARKODE_ARK548L2SA_ERK_8_4_5\00", align 1
@.str.20 = private unnamed_addr constant [29 x i8] c"ARKODE_ARK548L2SAb_ERK_8_4_5\00", align 1
@.str.21 = private unnamed_addr constant [20 x i8] c"ARKODE_VERNER_8_5_6\00", align 1
@.str.22 = private unnamed_addr constant [20 x i8] c"ARKODE_VERNER_9_5_6\00", align 1
@.str.23 = private unnamed_addr constant [21 x i8] c"ARKODE_VERNER_10_6_7\00", align 1
@.str.24 = private unnamed_addr constant [21 x i8] c"ARKODE_VERNER_13_7_8\00", align 1
@.str.25 = private unnamed_addr constant [21 x i8] c"ARKODE_VERNER_16_8_9\00", align 1
@.str.26 = private unnamed_addr constant [23 x i8] c"ARKODE_FEHLBERG_13_7_8\00", align 1
@.str.27 = private unnamed_addr constant [23 x i8] c"ARKODE_KNOTH_WOLKE_3_3\00", align 1
@__func__.ARKodeButcherTable_ERKIDToName = private unnamed_addr constant [31 x i8] c"ARKodeButcherTable_ERKIDToName\00", align 1

; Function Attrs: nounwind uwtable
define ptr @ARKodeButcherTable_ERKIDToName(i32 noundef %0) #0 {
  %2 = alloca ptr, align 8
  %3 = alloca i32, align 4
  store i32 %0, ptr %3, align 4, !tbaa !3
  %4 = load i32, ptr %3, align 4, !tbaa !3
  switch i32 %4, label %31 [
    i32 -1, label %5
    i32 22, label %6
    i32 0, label %7
    i32 23, label %8
    i32 24, label %9
    i32 15, label %10
    i32 1, label %11
    i32 2, label %12
    i32 17, label %13
    i32 16, label %14
    i32 3, label %15
    i32 4, label %16
    i32 13, label %17
    i32 5, label %18
    i32 6, label %19
    i32 7, label %20
    i32 8, label %21
    i32 9, label %22
    i32 14, label %23
    i32 10, label %24
    i32 18, label %25
    i32 19, label %26
    i32 20, label %27
    i32 21, label %28
    i32 11, label %29
    i32 12, label %30
  ]

5:                                                ; preds = %1
  store ptr @.str.2, ptr %2, align 8
  br label %32

6:                                                ; preds = %1
  store ptr @.str.3, ptr %2, align 8
  br label %32

7:                                                ; preds = %1
  store ptr @.str.4, ptr %2, align 8
  br label %32

8:                                                ; preds = %1
  store ptr @.str.5, ptr %2, align 8
  br label %32

9:                                                ; preds = %1
  store ptr @.str.6, ptr %2, align 8
  br label %32

10:                                               ; preds = %1
  store ptr @.str.7, ptr %2, align 8
  br label %32

11:                                               ; preds = %1
  store ptr @.str.8, ptr %2, align 8
  br label %32

12:                                               ; preds = %1
  store ptr @.str.9, ptr %2, align 8
  br label %32

13:                                               ; preds = %1
  store ptr @.str.10, ptr %2, align 8
  br label %32

14:                                               ; preds = %1
  store ptr @.str.11, ptr %2, align 8
  br label %32

15:                                               ; preds = %1
  store ptr @.str.12, ptr %2, align 8
  br label %32

16:                                               ; preds = %1
  store ptr @.str.13, ptr %2, align 8
  br label %32

17:                                               ; preds = %1
  store ptr @.str.14, ptr %2, align 8
  br label %32

18:                                               ; preds = %1
  store ptr @.str.15, ptr %2, align 8
  br label %32

19:                                               ; preds = %1
  store ptr @.str.16, ptr %2, align 8
  br label %32

20:                                               ; preds = %1
  store ptr @.str.17, ptr %2, align 8
  br label %32

21:                                               ; preds = %1
  store ptr @.str.18, ptr %2, align 8
  br label %32

22:                                               ; preds = %1
  store ptr @.str.19, ptr %2, align 8
  br label %32

23:                                               ; preds = %1
  store ptr @.str.20, ptr %2, align 8
  br label %32

24:                                               ; preds = %1
  store ptr @.str.21, ptr %2, align 8
  br label %32

25:                                               ; preds = %1
  store ptr @.str.22, ptr %2, align 8
  br label %32

26:                                               ; preds = %1
  store ptr @.str.23, ptr %2, align 8
  br label %32

27:                                               ; preds = %1
  store ptr @.str.24, ptr %2, align 8
  br label %32

28:                                               ; preds = %1
  store ptr @.str.25, ptr %2, align 8
  br label %32

29:                                               ; preds = %1
  store ptr @.str.26, ptr %2, align 8
  br label %32

30:                                               ; preds = %1
  store ptr @.str.27, ptr %2, align 8
  br label %32

31:                                               ; preds = %1
  call void (ptr, i32, i32, ptr, ptr, ptr, ...) @arkProcessError(ptr noundef null, i32 noundef -22, i32 noundef 73, ptr noundef @__func__.ARKodeButcherTable_ERKIDToName, ptr noundef @.str, ptr noundef @.str.1)
  store ptr null, ptr %2, align 8
  br label %32

32:                                               ; preds = %31, %30, %29, %28, %27, %26, %25, %24, %23, %22, %21, %20, %19, %18, %17, %16, %15, %14, %13, %12, %11, %10, %9, %8, %7, %6, %5
  %33 = load ptr, ptr %2, align 8
  ret ptr %33
}