; Function Attrs: nounwind uwtable
define noundef ptr @ARKodeButcherTable_ERKIDToName(i32 noundef %0) local_unnamed_addr #0 {
  %switch.tableidx = add i32 %0, 1
  %2 = icmp ult i32 %switch.tableidx, 26
  br i1 %2, label %switch.lookup, label %3

3:                                                ; preds = %1
  tail call void (ptr, i32, i32, ptr, ptr, ptr, ...) @arkProcessError(ptr noundef null, i32 noundef -22, i32 noundef 73, ptr noundef nonnull @__func__.ARKodeButcherTable_ERKIDToName, ptr noundef nonnull @.str, ptr noundef nonnull @.str.1) #3
  br label %5

switch.lookup:                                    ; preds = %1
  %4 = zext nneg i32 %switch.tableidx to i64
  %switch.gep = getelementptr inbounds nuw [26 x ptr], ptr @switch.table.ARKodeButcherTable_ERKIDToName, i64 0, i64 %4
  %switch.load = load ptr, ptr %switch.gep, align 8
  br label %5

5:                                                ; preds = %switch.lookup, %3
  %.0 = phi ptr [ null, %3 ], [ %switch.load, %switch.lookup ]
  ret ptr %.0
}